target datalayout = "e-m:e-p270:32:32-p271:32:32-p272:64:64-i64:64-i128:128-f80:128-n8:16:32:64-S128"
target triple = "x86_64-pc-linux-gnu"

%struct._object = type { %union.anon, ptr }
%union.anon = type { i64 }
%struct.module_state = type { ptr, ptr, ptr, ptr, ptr }
%struct.anon = type { i32, i32 }
%struct._xidata = type { ptr, ptr, i64, ptr, ptr }

@.str = private unnamed_addr constant [14 x i8] c"_interpqueues\00", align 1
@.str.26 = private unnamed_addr constant [20 x i8] c"interpreters.queues\00", align 1
@.str.27 = private unnamed_addr constant [33 x i8] c"test.support.interpreters.queues\00", align 1
@PyExc_RuntimeError = external global ptr, align 8
@.str.56 = private unnamed_addr constant [38 x i8] c"_interpqueues module not imported yet\00", align 1

; Function Attrs: alwaysinline nounwind uwtable
define internal i32 @_Py_IsImmortal(ptr noundef %0) #6 {
  %2 = alloca ptr, align 8
  store ptr %0, ptr %2, align 8, !tbaa !3
  %3 = load ptr, ptr %2, align 8, !tbaa !3
  %4 = getelementptr inbounds nuw %struct._object, ptr %3, i32 0, i32 0
  %5 = getelementptr inbounds nuw %struct.anon, ptr %4, i32 0, i32 0
  %6 = load i32, ptr %5, align 8, !tbaa !73
  %7 = icmp slt i32 %6, 0
  %8 = zext i1 %7 to i32
  ret i32 %8
}

; Function Attrs: nounwind uwtable
define internal i32 @ensure_highlevel_module_loaded() #0 {
  %1 = alloca i32, align 4
  %2 = alloca ptr, align 8
  %3 = alloca i32, align 4
  call void @llvm.lifetime.start.p0(i64 8, ptr %2) #8
  %4 = call ptr @PyImport_ImportModule(ptr noundef @.str.26)
  store ptr %4, ptr %2, align 8, !tbaa !3
  %5 = load ptr, ptr %2, align 8, !tbaa !3
  %6 = icmp eq ptr %5, null
  br i1 %6, label %7, label %13

7:                                                ; preds = %0
  call void @PyErr_Clear()
  %8 = call ptr @PyImport_ImportModule(ptr noundef @.str.27)
  store ptr %8, ptr %2, align 8, !tbaa !3
  %9 = load ptr, ptr %2, align 8, !tbaa !3
  %10 = icmp eq ptr %9, null
  br i1 %10, label %11, label %12

11:                                               ; preds = %7
  store i32 -1, ptr %1, align 4
  store i32 1, ptr %3, align 4
  br label %15

12:                                               ; preds = %7
  br label %13

13:                                               ; preds = %12, %0
  %14 = load ptr, ptr %2, align 8, !tbaa !3
  call void @Py_DECREF(ptr noundef %14)
  store i32 0, ptr %1, align 4
  store i32 1, ptr %3, align 4
  br label %15

15:                                               ; preds = %13, %11
  call void @llvm.lifetime.end.p0(i64 8, ptr %2) #8
  %16 = load i32, ptr %1, align 4
  ret i32 %16
}

; Function Attrs: inlinehint nounwind uwtable
define internal ptr @get_module_state(ptr noundef %0) #5 {
  %2 = alloca ptr, align 8
  %3 = alloca ptr, align 8
  store ptr %0, ptr %2, align 8, !tbaa !3
  call void @llvm.lifetime.start.p0(i64 8, ptr %3) #8
  %4 = load ptr, ptr %2, align 8, !tbaa !3
  %5 = call ptr @PyModule_GetState(ptr noundef %4)
  store ptr %5, ptr %3, align 8, !tbaa !8
  %6 = load ptr, ptr %3, align 8, !tbaa !8
  call void @llvm.lifetime.end.p0(i64 8, ptr %3) #8
  ret ptr %6
}

; Function Attrs: alwaysinline nounwind uwtable
define internal void @Py_DECREF(ptr noundef %0) #6 {
  %2 = alloca ptr, align 8
  store ptr %0, ptr %2, align 8, !tbaa !3
  %3 = load ptr, ptr %2, align 8, !tbaa !3
  %4 = call i32 @_Py_IsImmortal(ptr noundef %3)
  %5 = icmp ne i32 %4, 0
  br i1 %5, label %6, label %7

6:                                                ; preds = %1
  br label %16

7:                                                ; preds = %1
  %8 = load ptr, ptr %2, align 8, !tbaa !3
  %9 = getelementptr inbounds nuw %struct._object, ptr %8, i32 0, i32 0
  %10 = getelementptr inbounds nuw %struct.anon, ptr %9, i32 0, i32 0
  %11 = load i32, ptr %10, align 8, !tbaa !73
  %12 = add i32 %11, -1
  store i32 %12, ptr %10, align 8, !tbaa !73
  %13 = icmp eq i32 %12, 0
  br i1 %13, label %14, label %16

14:                                               ; preds = %7
  %15 = load ptr, ptr %2, align 8, !tbaa !3
  call void @_Py_Dealloc(ptr noundef %15)
  br label %16

16:                                               ; preds = %6, %14, %7
  ret void
}

; Function Attrs: nounwind uwtable
define internal ptr @get_external_queue_type(ptr noundef %0) #0 {
  %2 = alloca ptr, align 8
  %3 = alloca ptr, align 8
  %4 = alloca ptr, align 8
  %5 = alloca ptr, align 8
  %6 = alloca i32, align 4
  store ptr %0, ptr %3, align 8, !tbaa !3
  call void @llvm.lifetime.start.p0(i64 8, ptr %4) #8
  %7 = load ptr, ptr %3, align 8, !tbaa !3
  %8 = call ptr @get_module_state(ptr noundef %7)
  store ptr %8, ptr %4, align 8, !tbaa !8
  call void @llvm.lifetime.start.p0(i64 8, ptr %5) #8
  %9 = load ptr, ptr %4, align 8, !tbaa !8
  %10 = getelementptr inbounds nuw %struct.module_state, ptr %9, i32 0, i32 0
  %11 = load ptr, ptr %10, align 8, !tbaa !115
  store ptr %11, ptr %5, align 8, !tbaa !113
  %12 = load ptr, ptr %5, align 8, !tbaa !113
  %13 = icmp eq ptr %12, null
  br i1 %13, label %14, label %22

14:                                               ; preds = %1
  %15 = call i32 @ensure_highlevel_module_loaded()
  %16 = icmp slt i32 %15, 0
  br i1 %16, label %17, label %18

17:                                               ; preds = %14
  store ptr null, ptr %2, align 8
  store i32 1, ptr %6, align 4
  br label %24

18:                                               ; preds = %14
  %19 = load ptr, ptr %4, align 8, !tbaa !8
  %20 = getelementptr inbounds nuw %struct.module_state, ptr %19, i32 0, i32 0
  %21 = load ptr, ptr %20, align 8, !tbaa !115
  store ptr %21, ptr %5, align 8, !tbaa !113
  br label %22

22:                                               ; preds = %18, %1
  %23 = load ptr, ptr %5, align 8, !tbaa !113
  store ptr %23, ptr %2, align 8
  store i32 1, ptr %6, align 4
  br label %24

24:                                               ; preds = %22, %17
  call void @llvm.lifetime.end.p0(i64 8, ptr %5) #8
  call void @llvm.lifetime.end.p0(i64 8, ptr %4) #8
  %25 = load ptr, ptr %2, align 8
  ret ptr %25
}

; Function Attrs: nounwind uwtable
define internal ptr @_get_current_module() #0 {
  %1 = alloca ptr, align 8
  %2 = alloca ptr, align 8
  %3 = alloca i32, align 4
  %4 = alloca ptr, align 8
  call void @llvm.lifetime.start.p0(i64 8, ptr %2) #8
  %5 = call ptr @PyUnicode_FromString(ptr noundef @.str)
  store ptr %5, ptr %2, align 8, !tbaa !3
  %6 = load ptr, ptr %2, align 8, !tbaa !3
  %7 = icmp eq ptr %6, null
  br i1 %7, label %8, label %9

8:                                                ; preds = %0
  store ptr null, ptr %1, align 8
  store i32 1, ptr %3, align 4
  br label %19

9:                                                ; preds = %0
  call void @llvm.lifetime.start.p0(i64 8, ptr %4) #8
  %10 = load ptr, ptr %2, align 8, !tbaa !3
  %11 = call ptr @PyImport_GetModule(ptr noundef %10)
  store ptr %11, ptr %4, align 8, !tbaa !3
  %12 = load ptr, ptr %2, align 8, !tbaa !3
  call void @Py_DECREF(ptr noundef %12)
  %13 = load ptr, ptr %4, align 8, !tbaa !3
  %14 = icmp eq ptr %13, null
  br i1 %14, label %15, label %16

15:                                               ; preds = %9
  store ptr null, ptr %1, align 8
  store i32 1, ptr %3, align 4
  br label %18

16:                                               ; preds = %9
  %17 = load ptr, ptr %4, align 8, !tbaa !3
  store ptr %17, ptr %1, align 8
  store i32 1, ptr %3, align 4
  br label %18

18:                                               ; preds = %16, %15
  call void @llvm.lifetime.end.p0(i64 8, ptr %4) #8
  br label %19

19:                                               ; preds = %18, %8
  call void @llvm.lifetime.end.p0(i64 8, ptr %2) #8
  %20 = load ptr, ptr %1, align 8
  ret ptr %20
}

; Function Attrs: nounwind uwtable
define internal ptr @_queueobj_from_xid(ptr noundef %0) #0 {
  %2 = alloca ptr, align 8
  %3 = alloca ptr, align 8
  %4 = alloca i64, align 8
  %5 = alloca ptr, align 8
  %6 = alloca i32, align 4
  %7 = alloca ptr, align 8
  %8 = alloca ptr, align 8
  %9 = alloca ptr, align 8
  store ptr %0, ptr %3, align 8, !tbaa !66
  call void @llvm.lifetime.start.p0(i64 8, ptr %4) #8
  %10 = load ptr, ptr %3, align 8, !tbaa !66
  %11 = getelementptr inbounds nuw %struct._xidata, ptr %10, i32 0, i32 0
  %12 = load ptr, ptr %11, align 8, !tbaa !132
  %13 = load i64, ptr %12, align 8, !tbaa !11
  store i64 %13, ptr %4, align 8, !tbaa !11
  call void @llvm.lifetime.start.p0(i64 8, ptr %5) #8
  %14 = load i64, ptr %4, align 8, !tbaa !11
  %15 = call ptr @PyLong_FromLongLong(i64 noundef %14)
  store ptr %15, ptr %5, align 8, !tbaa !3
  %16 = load ptr, ptr %5, align 8, !tbaa !3
  %17 = icmp eq ptr %16, null
  br i1 %17, label %18, label %19

18:                                               ; preds = %1
  store ptr null, ptr %2, align 8
  store i32 1, ptr %6, align 4
  br label %41

19:                                               ; preds = %1
  call void @llvm.lifetime.start.p0(i64 8, ptr %7) #8
  %20 = call ptr @_get_current_module()
  store ptr %20, ptr %7, align 8, !tbaa !3
  %21 = load ptr, ptr %7, align 8, !tbaa !3
  %22 = icmp eq ptr %21, null
  br i1 %22, label %23, label %25

23:                                               ; preds = %19
  %24 = load ptr, ptr @PyExc_RuntimeError, align 8, !tbaa !3
  call void @PyErr_SetString(ptr noundef %24, ptr noundef @.str.56)
  store ptr null, ptr %2, align 8
  store i32 1, ptr %6, align 4
  br label %40

25:                                               ; preds = %19
  call void @llvm.lifetime.start.p0(i64 8, ptr %8) #8
  %26 = load ptr, ptr %7, align 8, !tbaa !3
  %27 = call ptr @get_external_queue_type(ptr noundef %26)
  store ptr %27, ptr %8, align 8, !tbaa !113
  %28 = load ptr, ptr %7, align 8, !tbaa !3
  call void @Py_DECREF(ptr noundef %28)
  %29 = load ptr, ptr %8, align 8, !tbaa !113
  %30 = icmp eq ptr %29, null
  br i1 %30, label %31, label %33

31:                                               ; preds = %25
  %32 = load ptr, ptr %5, align 8, !tbaa !3
  call void @Py_DECREF(ptr noundef %32)
  store ptr null, ptr %2, align 8
  store i32 1, ptr %6, align 4
  br label %39

33:                                               ; preds = %25
  call void @llvm.lifetime.start.p0(i64 8, ptr %9) #8
  %34 = load ptr, ptr %8, align 8, !tbaa !113
  %35 = load ptr, ptr %5, align 8, !tbaa !3
  %36 = call ptr @PyObject_CallOneArg(ptr noundef %34, ptr noundef %35)
  store ptr %36, ptr %9, align 8, !tbaa !3
  %37 = load ptr, ptr %5, align 8, !tbaa !3
  call void @Py_DECREF(ptr noundef %37)
  %38 = load ptr, ptr %9, align 8, !tbaa !3
  store ptr %38, ptr %2, align 8
  store i32 1, ptr %6, align 4
  call void @llvm.lifetime.end.p0(i64 8, ptr %9) #8
  br label %39

39:                                               ; preds = %33, %31
  call void @llvm.lifetime.end.p0(i64 8, ptr %8) #8
  br label %40

40:                                               ; preds = %39, %23
  call void @llvm.lifetime.end.p0(i64 8, ptr %7) #8
  br label %41

41:                                               ; preds = %40, %18
  call void @llvm.lifetime.end.p0(i64 8, ptr %5) #8
  call void @llvm.lifetime.end.p0(i64 8, ptr %4) #8
  %42 = load ptr, ptr %2, align 8
  ret ptr %42
}