; Function Attrs: nounwind uwtable
define internal ptr @_queueobj_from_xid(ptr noundef readonly captures(none) %0) #0 {
  %2 = load ptr, ptr %0, align 8, !tbaa !101
  %3 = load i64, ptr %2, align 8, !tbaa !17
  %4 = tail call ptr @PyLong_FromLongLong(i64 noundef %3) #6
  %5 = icmp eq ptr %4, null
  br i1 %5, label %Py_DECREF.exit16, label %6

6:                                                ; preds = %1
  %7 = tail call ptr @PyUnicode_FromString(ptr noundef nonnull @.str) #6
  %8 = icmp eq ptr %7, null
  br i1 %8, label %_get_current_module.exit.thread, label %9

9:                                                ; preds = %6
  %10 = tail call ptr @PyImport_GetModule(ptr noundef nonnull %7) #6
  %11 = load i32, ptr %7, align 8, !tbaa !55
  %.not.i.i = icmp sgt i32 %11, -1
  br i1 %.not.i.i, label %12, label %_get_current_module.exit

12:                                               ; preds = %9
  %13 = add nsw i32 %11, -1
  store i32 %13, ptr %7, align 8, !tbaa !55
  %14 = icmp eq i32 %13, 0
  br i1 %14, label %15, label %_get_current_module.exit

15:                                               ; preds = %12
  tail call void @_Py_Dealloc(ptr noundef nonnull %7) #6
  br label %_get_current_module.exit

_get_current_module.exit:                         ; preds = %9, %12, %15
  %16 = icmp eq ptr %10, null
  br i1 %16, label %_get_current_module.exit.thread, label %18

_get_current_module.exit.thread:                  ; preds = %6, %_get_current_module.exit
  %17 = load ptr, ptr @PyExc_RuntimeError, align 8, !tbaa !16
  tail call void @PyErr_SetString(ptr noundef %17, ptr noundef nonnull @.str.56) #6
  br label %Py_DECREF.exit16

18:                                               ; preds = %_get_current_module.exit
  %19 = tail call ptr @PyModule_GetState(ptr noundef nonnull %10) #6
  %20 = load ptr, ptr %19, align 8, !tbaa !3
  %21 = icmp eq ptr %20, null
  br i1 %21, label %22, label %get_external_queue_type.exit

22:                                               ; preds = %18
  %23 = tail call ptr @PyImport_ImportModule(ptr noundef nonnull @.str.26) #6
  %24 = icmp eq ptr %23, null
  br i1 %24, label %25, label %28

25:                                               ; preds = %22
  tail call void @PyErr_Clear() #6
  %26 = tail call ptr @PyImport_ImportModule(ptr noundef nonnull @.str.27) #6
  %27 = icmp eq ptr %26, null
  br i1 %27, label %get_external_queue_type.exit, label %28

28:                                               ; preds = %25, %22
  %.0.i.i = phi ptr [ %26, %25 ], [ %23, %22 ]
  %29 = load i32, ptr %.0.i.i, align 8, !tbaa !55
  %.not.i.i.i = icmp sgt i32 %29, -1
  br i1 %.not.i.i.i, label %30, label %34

30:                                               ; preds = %28
  %31 = add nsw i32 %29, -1
  store i32 %31, ptr %.0.i.i, align 8, !tbaa !55
  %32 = icmp eq i32 %31, 0
  br i1 %32, label %33, label %34

33:                                               ; preds = %30
  tail call void @_Py_Dealloc(ptr noundef nonnull %.0.i.i) #6
  br label %34

34:                                               ; preds = %33, %30, %28
  %35 = load ptr, ptr %19, align 8, !tbaa !3
  br label %get_external_queue_type.exit

get_external_queue_type.exit:                     ; preds = %18, %25, %34
  %.06.i = phi ptr [ %35, %34 ], [ %20, %18 ], [ null, %25 ]
  %36 = load i32, ptr %10, align 8, !tbaa !55
  %.not.i17 = icmp sgt i32 %36, -1
  br i1 %.not.i17, label %37, label %Py_DECREF.exit18

37:                                               ; preds = %get_external_queue_type.exit
  %38 = add nsw i32 %36, -1
  store i32 %38, ptr %10, align 8, !tbaa !55
  %39 = icmp eq i32 %38, 0
  br i1 %39, label %40, label %Py_DECREF.exit18

40:                                               ; preds = %37
  tail call void @_Py_Dealloc(ptr noundef nonnull %10) #6
  br label %Py_DECREF.exit18

Py_DECREF.exit18:                                 ; preds = %get_external_queue_type.exit, %37, %40
  %41 = icmp eq ptr %.06.i, null
  br i1 %41, label %42, label %48

42:                                               ; preds = %Py_DECREF.exit18
  %43 = load i32, ptr %4, align 8, !tbaa !55
  %.not.i15 = icmp sgt i32 %43, -1
  br i1 %.not.i15, label %44, label %Py_DECREF.exit16

44:                                               ; preds = %42
  %45 = add nsw i32 %43, -1
  store i32 %45, ptr %4, align 8, !tbaa !55
  %46 = icmp eq i32 %45, 0
  br i1 %46, label %47, label %Py_DECREF.exit16

47:                                               ; preds = %44
  tail call void @_Py_Dealloc(ptr noundef nonnull %4) #6
  br label %Py_DECREF.exit16

48:                                               ; preds = %Py_DECREF.exit18
  %49 = tail call ptr @PyObject_CallOneArg(ptr noundef nonnull %.06.i, ptr noundef nonnull %4) #6
  %50 = load i32, ptr %4, align 8, !tbaa !55
  %.not.i = icmp sgt i32 %50, -1
  br i1 %.not.i, label %51, label %Py_DECREF.exit16

51:                                               ; preds = %48
  %52 = add nsw i32 %50, -1
  store i32 %52, ptr %4, align 8, !tbaa !55
  %53 = icmp eq i32 %52, 0
  br i1 %53, label %54, label %Py_DECREF.exit16

54:                                               ; preds = %51
  tail call void @_Py_Dealloc(ptr noundef nonnull %4) #6
  br label %Py_DECREF.exit16

Py_DECREF.exit16:                                 ; preds = %54, %51, %48, %47, %44, %42, %_get_current_module.exit.thread, %1
  %.0 = phi ptr [ null, %1 ], [ null, %_get_current_module.exit.thread ], [ null, %42 ], [ null, %44 ], [ null, %47 ], [ %49, %48 ], [ %49, %51 ], [ %49, %54 ]
  ret ptr %.0
}